(dp0
Vaccess_token
p1
Vafed3cf12e0124e274fe680f5c01b82a801bf858721c147b098cb05c4cdc84ad
p2
sVtoken_type
p3
Vbearer
p4
sVexpires_in
p5
I604800
sVrefresh_token
p6
V314c76e9c9b4ca4ae4a7274db20ec17ecd55fc3f5b9208805f1848377501192a
p7
s.