(dp0
Vaccess_token
p1
V67ca425305c4307ee893175a4e6fe2c610984b791541c0340713b24b4cdff59c
p2
sVtoken_type
p3
Vbearer
p4
sVexpires_in
p5
I604800
sVrefresh_token
p6
V563ecd9ef54bd6c0d58a9f5070db5e81f619f23998aaab1ef56ff84488f49635
p7
s.