ccopy_reg
_reconstructor
p0
(coauthlib.oauth2.rfc6749.tokens
OAuth2Token
p1
c__builtin__
dict
p2
(dp3
Vaccess_token
p4
Vef7711638b1eb9f2c6aa8c3be0199000d9122a62773e799523a1d636c8137fc7
p5
sVtoken_type
p6
Vbearer
p7
sVexpires_in
p8
I601292
sVexpires_at
p9
F1433430547.113949
sVrefresh_token
p10
V7134f351f76734af0de37e69fd4d4765a339fecaeb14bc1ab1514eef382642ab
p11
stp12
Rp13
(dp14
S'_new_scope'
p15
c__builtin__
set
p16
((lp17
V
p18
atp19
Rp20
sS'_old_scope'
p21
g20
sb.