ccopy_reg
_reconstructor
p0
(coauthlib.oauth2.rfc6749.tokens
OAuth2Token
p1
c__builtin__
dict
p2
(dp3
Vaccess_token
p4
V08f748bc673fdb910cc050592271c420e2afff50f9e0d0e4cddab38943ed3d07
p5
sVtoken_type
p6
Vbearer
p7
sVexpires_in
p8
I601646
sVrefresh_token
p9
Vdbcb7aa1ae6d49406e18811578e01e14db317253f1d534e7753f75c3849ca938
p10
sVexpires_at
p11
F1433430687.727188
stp12
Rp13
(dp14
S'_new_scope'
p15
c__builtin__
set
p16
((lp17
V
p18
atp19
Rp20
sS'_old_scope'
p21
g20
sb.